target datalayout = "e-m:e-p270:32:32-p271:32:32-p272:64:64-i64:64-i128:128-f80:128-n8:16:32:64-S128"
target triple = "x86_64-pc-linux-gnu"

%struct._object = type { %union.anon, ptr }
%union.anon = type { i64 }
%struct.PyVarObject = type { %struct._object, i64 }
%struct.arraydescr = type { i8, i32, ptr, ptr, ptr, ptr, i32, i32 }
%struct.anon = type { i32, i32 }
%struct.PyListObject = type { %struct.PyVarObject, ptr, i64 }
%struct.arrayobject = type { %struct.PyVarObject, ptr, i64, ptr, ptr, i64 }

@PyExc_ValueError = external global ptr, align 8
@.str.73 = private unnamed_addr constant [9 x i8] c"%s('%c')\00", align 1
@.str.74 = private unnamed_addr constant [13 x i8] c"%s('%c', %R)\00", align 1
@.str.75 = private unnamed_addr constant [67 x i8] c"tounicode() may only be called on unicode type arrays ('u' or 'w')\00", align 1

; Function Attrs: alwaysinline nounwind uwtable
define internal i32 @_Py_IsImmortal(ptr noundef %0) #4 {
  %2 = alloca ptr, align 8
  store ptr %0, ptr %2, align 8, !tbaa !3
  %3 = load ptr, ptr %2, align 8, !tbaa !3
  %4 = getelementptr inbounds nuw %struct._object, ptr %3, i32 0, i32 0
  %5 = getelementptr inbounds nuw %struct.anon, ptr %4, i32 0, i32 0
  %6 = load i32, ptr %5, align 8, !tbaa !36
  %7 = icmp slt i32 %6, 0
  %8 = zext i1 %7 to i32
  ret i32 %8
}

; Function Attrs: inlinehint nounwind uwtable
define internal void @PyList_SET_ITEM(ptr noundef %0, i64 noundef %1, ptr noundef %2) #3 {
  %4 = alloca ptr, align 8
  %5 = alloca i64, align 8
  %6 = alloca ptr, align 8
  %7 = alloca ptr, align 8
  store ptr %0, ptr %4, align 8, !tbaa !3
  store i64 %1, ptr %5, align 8, !tbaa !21
  store ptr %2, ptr %6, align 8, !tbaa !3
  call void @llvm.lifetime.start.p0(i64 8, ptr %7) #8
  %8 = load ptr, ptr %4, align 8, !tbaa !3
  store ptr %8, ptr %7, align 8, !tbaa !8
  %9 = load ptr, ptr %6, align 8, !tbaa !3
  %10 = load ptr, ptr %7, align 8, !tbaa !8
  %11 = getelementptr inbounds nuw %struct.PyListObject, ptr %10, i32 0, i32 1
  %12 = load ptr, ptr %11, align 8, !tbaa !63
  %13 = load i64, ptr %5, align 8, !tbaa !21
  %14 = getelementptr ptr, ptr %12, i64 %13
  store ptr %9, ptr %14, align 8, !tbaa !3
  call void @llvm.lifetime.end.p0(i64 8, ptr %7) #8
  ret void
}

; Function Attrs: nounwind uwtable
define internal ptr @getarrayitem(ptr noundef %0, i64 noundef %1) #0 {
  %3 = alloca ptr, align 8
  %4 = alloca i64, align 8
  %5 = alloca ptr, align 8
  store ptr %0, ptr %3, align 8, !tbaa !3
  store i64 %1, ptr %4, align 8, !tbaa !21
  call void @llvm.lifetime.start.p0(i64 8, ptr %5) #8
  %6 = load ptr, ptr %3, align 8, !tbaa !3
  store ptr %6, ptr %5, align 8, !tbaa !68
  %7 = load ptr, ptr %5, align 8, !tbaa !68
  %8 = getelementptr inbounds nuw %struct.arrayobject, ptr %7, i32 0, i32 3
  %9 = load ptr, ptr %8, align 8, !tbaa !99
  %10 = getelementptr inbounds nuw %struct.arraydescr, ptr %9, i32 0, i32 2
  %11 = load ptr, ptr %10, align 8, !tbaa !124
  %12 = load ptr, ptr %5, align 8, !tbaa !68
  %13 = load i64, ptr %4, align 8, !tbaa !21
  %14 = call ptr %11(ptr noundef %12, i64 noundef %13)
  call void @llvm.lifetime.end.p0(i64 8, ptr %5) #8
  ret ptr %14
}

; Function Attrs: alwaysinline nounwind uwtable
define internal void @Py_DECREF(ptr noundef %0) #4 {
  %2 = alloca ptr, align 8
  store ptr %0, ptr %2, align 8, !tbaa !3
  %3 = load ptr, ptr %2, align 8, !tbaa !3
  %4 = call i32 @_Py_IsImmortal(ptr noundef %3)
  %5 = icmp ne i32 %4, 0
  br i1 %5, label %6, label %7

6:                                                ; preds = %1
  br label %16

7:                                                ; preds = %1
  %8 = load ptr, ptr %2, align 8, !tbaa !3
  %9 = getelementptr inbounds nuw %struct._object, ptr %8, i32 0, i32 0
  %10 = getelementptr inbounds nuw %struct.anon, ptr %9, i32 0, i32 0
  %11 = load i32, ptr %10, align 8, !tbaa !36
  %12 = add i32 %11, -1
  store i32 %12, ptr %10, align 8, !tbaa !36
  %13 = icmp eq i32 %12, 0
  br i1 %13, label %14, label %16

14:                                               ; preds = %7
  %15 = load ptr, ptr %2, align 8, !tbaa !3
  call void @_Py_Dealloc(ptr noundef %15)
  br label %16

16:                                               ; preds = %6, %14, %7
  ret void
}

; Function Attrs: nounwind uwtable
define internal ptr @array_array_tolist_impl(ptr noundef %0) #0 {
  %2 = alloca ptr, align 8
  %3 = alloca ptr, align 8
  %4 = alloca ptr, align 8
  %5 = alloca i64, align 8
  %6 = alloca i32, align 4
  %7 = alloca ptr, align 8
  store ptr %0, ptr %3, align 8, !tbaa !68
  call void @llvm.lifetime.start.p0(i64 8, ptr %4) #8
  %8 = load ptr, ptr %3, align 8, !tbaa !68
  %9 = call i64 @Py_SIZE(ptr noundef %8)
  %10 = call ptr @PyList_New(i64 noundef %9)
  store ptr %10, ptr %4, align 8, !tbaa !3
  call void @llvm.lifetime.start.p0(i64 8, ptr %5) #8
  %11 = load ptr, ptr %4, align 8, !tbaa !3
  %12 = icmp eq ptr %11, null
  br i1 %12, label %13, label %14

13:                                               ; preds = %1
  store ptr null, ptr %2, align 8
  store i32 1, ptr %6, align 4
  br label %41

14:                                               ; preds = %1
  store i64 0, ptr %5, align 8, !tbaa !21
  br label %15

15:                                               ; preds = %34, %14
  %16 = load i64, ptr %5, align 8, !tbaa !21
  %17 = load ptr, ptr %3, align 8, !tbaa !68
  %18 = call i64 @Py_SIZE(ptr noundef %17)
  %19 = icmp slt i64 %16, %18
  br i1 %19, label %20, label %37

20:                                               ; preds = %15
  call void @llvm.lifetime.start.p0(i64 8, ptr %7) #8
  %21 = load ptr, ptr %3, align 8, !tbaa !68
  %22 = load i64, ptr %5, align 8, !tbaa !21
  %23 = call ptr @getarrayitem(ptr noundef %21, i64 noundef %22)
  store ptr %23, ptr %7, align 8, !tbaa !3
  %24 = load ptr, ptr %7, align 8, !tbaa !3
  %25 = icmp eq ptr %24, null
  br i1 %25, label %26, label %27

26:                                               ; preds = %20
  store i32 5, ptr %6, align 4
  br label %31

27:                                               ; preds = %20
  %28 = load ptr, ptr %4, align 8, !tbaa !3
  %29 = load i64, ptr %5, align 8, !tbaa !21
  %30 = load ptr, ptr %7, align 8, !tbaa !3
  call void @PyList_SET_ITEM(ptr noundef %28, i64 noundef %29, ptr noundef %30)
  store i32 0, ptr %6, align 4
  br label %31

31:                                               ; preds = %26, %27
  call void @llvm.lifetime.end.p0(i64 8, ptr %7) #8
  %32 = load i32, ptr %6, align 4
  switch i32 %32, label %41 [
    i32 0, label %33
    i32 5, label %39
  ]

33:                                               ; preds = %31
  br label %34

34:                                               ; preds = %33
  %35 = load i64, ptr %5, align 8, !tbaa !21
  %36 = add i64 %35, 1
  store i64 %36, ptr %5, align 8, !tbaa !21
  br label %15, !llvm.loop !138

37:                                               ; preds = %15
  %38 = load ptr, ptr %4, align 8, !tbaa !3
  store ptr %38, ptr %2, align 8
  store i32 1, ptr %6, align 4
  br label %41

39:                                               ; preds = %31
  %40 = load ptr, ptr %4, align 8, !tbaa !3
  call void @Py_DECREF(ptr noundef %40)
  store ptr null, ptr %2, align 8
  store i32 1, ptr %6, align 4
  br label %41

41:                                               ; preds = %39, %37, %31, %13
  call void @llvm.lifetime.end.p0(i64 8, ptr %5) #8
  call void @llvm.lifetime.end.p0(i64 8, ptr %4) #8
  %42 = load ptr, ptr %2, align 8
  ret ptr %42
}

; Function Attrs: nounwind uwtable
define internal ptr @array_array_tounicode_impl(ptr noundef %0) #0 {
  %2 = alloca ptr, align 8
  %3 = alloca ptr, align 8
  %4 = alloca i32, align 4
  %5 = alloca i32, align 4
  %6 = alloca i32, align 4
  store ptr %0, ptr %3, align 8, !tbaa !68
  call void @llvm.lifetime.start.p0(i64 4, ptr %4) #8
  %7 = load ptr, ptr %3, align 8, !tbaa !68
  %8 = getelementptr inbounds nuw %struct.arrayobject, ptr %7, i32 0, i32 3
  %9 = load ptr, ptr %8, align 8, !tbaa !99
  %10 = getelementptr inbounds nuw %struct.arraydescr, ptr %9, i32 0, i32 0
  %11 = load i8, ptr %10, align 8, !tbaa !41
  %12 = sext i8 %11 to i32
  store i32 %12, ptr %4, align 4, !tbaa !12
  %13 = load i32, ptr %4, align 4, !tbaa !12
  %14 = icmp ne i32 %13, 117
  br i1 %14, label %15, label %20

15:                                               ; preds = %1
  %16 = load i32, ptr %4, align 4, !tbaa !12
  %17 = icmp ne i32 %16, 119
  br i1 %17, label %18, label %20

18:                                               ; preds = %15
  %19 = load ptr, ptr @PyExc_ValueError, align 8, !tbaa !3
  call void @PyErr_SetString(ptr noundef %19, ptr noundef @.str.75)
  store ptr null, ptr %2, align 8
  store i32 1, ptr %5, align 4
  br label %38

20:                                               ; preds = %15, %1
  %21 = load i32, ptr %4, align 4, !tbaa !12
  %22 = icmp eq i32 %21, 117
  br i1 %22, label %23, label %30

23:                                               ; preds = %20
  %24 = load ptr, ptr %3, align 8, !tbaa !68
  %25 = getelementptr inbounds nuw %struct.arrayobject, ptr %24, i32 0, i32 1
  %26 = load ptr, ptr %25, align 8, !tbaa !70
  %27 = load ptr, ptr %3, align 8, !tbaa !68
  %28 = call i64 @Py_SIZE(ptr noundef %27)
  %29 = call ptr @PyUnicode_FromWideChar(ptr noundef %26, i64 noundef %28)
  store ptr %29, ptr %2, align 8
  store i32 1, ptr %5, align 4
  br label %38

30:                                               ; preds = %20
  call void @llvm.lifetime.start.p0(i64 4, ptr %6) #8
  store i32 0, ptr %6, align 4, !tbaa !12
  %31 = load ptr, ptr %3, align 8, !tbaa !68
  %32 = getelementptr inbounds nuw %struct.arrayobject, ptr %31, i32 0, i32 1
  %33 = load ptr, ptr %32, align 8, !tbaa !70
  %34 = load ptr, ptr %3, align 8, !tbaa !68
  %35 = call i64 @Py_SIZE(ptr noundef %34)
  %36 = mul i64 %35, 4
  %37 = call ptr @PyUnicode_DecodeUTF32(ptr noundef %33, i64 noundef %36, ptr noundef null, ptr noundef %6)
  store ptr %37, ptr %2, align 8
  store i32 1, ptr %5, align 4
  call void @llvm.lifetime.end.p0(i64 4, ptr %6) #8
  br label %38

38:                                               ; preds = %30, %23, %18
  call void @llvm.lifetime.end.p0(i64 4, ptr %4) #8
  %39 = load ptr, ptr %2, align 8
  ret ptr %39
}

; Function Attrs: inlinehint nounwind uwtable
define internal ptr @_Py_TYPE(ptr noundef %0) #3 {
  %2 = alloca ptr, align 8
  store ptr %0, ptr %2, align 8, !tbaa !3
  %3 = load ptr, ptr %2, align 8, !tbaa !3
  %4 = getelementptr inbounds nuw %struct._object, ptr %3, i32 0, i32 1
  %5 = load ptr, ptr %4, align 8, !tbaa !32
  ret ptr %5
}

; Function Attrs: inlinehint nounwind uwtable
define internal i64 @Py_SIZE(ptr noundef %0) #3 {
  %2 = alloca ptr, align 8
  store ptr %0, ptr %2, align 8, !tbaa !3
  %3 = load ptr, ptr %2, align 8, !tbaa !3
  %4 = getelementptr inbounds nuw %struct.PyVarObject, ptr %3, i32 0, i32 1
  %5 = load i64, ptr %4, align 8, !tbaa !62
  ret i64 %5
}

; Function Attrs: nounwind uwtable
define internal ptr @array_repr(ptr noundef %0) #0 {
  %2 = alloca ptr, align 8
  %3 = alloca ptr, align 8
  %4 = alloca i8, align 1
  %5 = alloca ptr, align 8
  %6 = alloca ptr, align 8
  %7 = alloca i64, align 8
  %8 = alloca i32, align 4
  store ptr %0, ptr %3, align 8, !tbaa !68
  call void @llvm.lifetime.start.p0(i64 1, ptr %4) #8
  call void @llvm.lifetime.start.p0(i64 8, ptr %5) #8
  call void @llvm.lifetime.start.p0(i64 8, ptr %6) #8
  store ptr null, ptr %6, align 8, !tbaa !3
  call void @llvm.lifetime.start.p0(i64 8, ptr %7) #8
  %9 = load ptr, ptr %3, align 8, !tbaa !68
  %10 = call i64 @Py_SIZE(ptr noundef %9)
  store i64 %10, ptr %7, align 8, !tbaa !21
  %11 = load ptr, ptr %3, align 8, !tbaa !68
  %12 = getelementptr inbounds nuw %struct.arrayobject, ptr %11, i32 0, i32 3
  %13 = load ptr, ptr %12, align 8, !tbaa !99
  %14 = getelementptr inbounds nuw %struct.arraydescr, ptr %13, i32 0, i32 0
  %15 = load i8, ptr %14, align 8, !tbaa !41
  store i8 %15, ptr %4, align 1, !tbaa !36
  %16 = load i64, ptr %7, align 8, !tbaa !21
  %17 = icmp eq i64 %16, 0
  br i1 %17, label %18, label %25

18:                                               ; preds = %1
  %19 = load ptr, ptr %3, align 8, !tbaa !68
  %20 = call ptr @_Py_TYPE(ptr noundef %19)
  %21 = call ptr @_PyType_Name(ptr noundef %20)
  %22 = load i8, ptr %4, align 1, !tbaa !36
  %23 = sext i8 %22 to i32
  %24 = call ptr (ptr, ...) @PyUnicode_FromFormat(ptr noundef @.str.73, ptr noundef %21, i32 noundef %23)
  store ptr %24, ptr %2, align 8
  store i32 1, ptr %8, align 4
  br label %53

25:                                               ; preds = %1
  %26 = load i8, ptr %4, align 1, !tbaa !36
  %27 = sext i8 %26 to i32
  %28 = icmp eq i32 %27, 117
  br i1 %28, label %33, label %29

29:                                               ; preds = %25
  %30 = load i8, ptr %4, align 1, !tbaa !36
  %31 = sext i8 %30 to i32
  %32 = icmp eq i32 %31, 119
  br i1 %32, label %33, label %36

33:                                               ; preds = %29, %25
  %34 = load ptr, ptr %3, align 8, !tbaa !68
  %35 = call ptr @array_array_tounicode_impl(ptr noundef %34)
  store ptr %35, ptr %6, align 8, !tbaa !3
  br label %39

36:                                               ; preds = %29
  %37 = load ptr, ptr %3, align 8, !tbaa !68
  %38 = call ptr @array_array_tolist_impl(ptr noundef %37)
  store ptr %38, ptr %6, align 8, !tbaa !3
  br label %39

39:                                               ; preds = %36, %33
  %40 = load ptr, ptr %6, align 8, !tbaa !3
  %41 = icmp eq ptr %40, null
  br i1 %41, label %42, label %43

42:                                               ; preds = %39
  store ptr null, ptr %2, align 8
  store i32 1, ptr %8, align 4
  br label %53

43:                                               ; preds = %39
  %44 = load ptr, ptr %3, align 8, !tbaa !68
  %45 = call ptr @_Py_TYPE(ptr noundef %44)
  %46 = call ptr @_PyType_Name(ptr noundef %45)
  %47 = load i8, ptr %4, align 1, !tbaa !36
  %48 = sext i8 %47 to i32
  %49 = load ptr, ptr %6, align 8, !tbaa !3
  %50 = call ptr (ptr, ...) @PyUnicode_FromFormat(ptr noundef @.str.74, ptr noundef %46, i32 noundef %48, ptr noundef %49)
  store ptr %50, ptr %5, align 8, !tbaa !3
  %51 = load ptr, ptr %6, align 8, !tbaa !3
  call void @Py_DECREF(ptr noundef %51)
  %52 = load ptr, ptr %5, align 8, !tbaa !3
  store ptr %52, ptr %2, align 8
  store i32 1, ptr %8, align 4
  br label %53

53:                                               ; preds = %43, %42, %18
  call void @llvm.lifetime.end.p0(i64 8, ptr %7) #8
  call void @llvm.lifetime.end.p0(i64 8, ptr %6) #8
  call void @llvm.lifetime.end.p0(i64 8, ptr %5) #8
  call void @llvm.lifetime.end.p0(i64 1, ptr %4) #8
  %54 = load ptr, ptr %2, align 8
  ret ptr %54
}