; Function Attrs: nounwind uwtable
define internal ptr @array_repr(ptr noundef %0) #0 {
  %2 = alloca i32, align 4
  %3 = getelementptr i8, ptr %0, i64 16
  %.val19 = load i64, ptr %3, align 8, !tbaa !40
  %4 = getelementptr inbounds nuw i8, ptr %0, i64 40
  %5 = load ptr, ptr %4, align 8, !tbaa !76
  %6 = load i8, ptr %5, align 8, !tbaa !36
  %7 = icmp eq i64 %.val19, 0
  br i1 %7, label %8, label %13

8:                                                ; preds = %1
  %9 = getelementptr i8, ptr %0, i64 8
  %.val18 = load ptr, ptr %9, align 8, !tbaa !19
  %10 = tail call ptr @_PyType_Name(ptr noundef %.val18) #11
  %11 = sext i8 %6 to i32
  %12 = tail call ptr (ptr, ...) @PyUnicode_FromFormat(ptr noundef nonnull @.str.73, ptr noundef %10, i32 noundef %11) #11
  br label %Py_DECREF.exit

13:                                               ; preds = %1
  %14 = sext i8 %6 to i32
  %15 = and i8 %6, -3
  %or.cond = icmp eq i8 %15, 117
  br i1 %or.cond, label %16, label %27

16:                                               ; preds = %13
  %17 = icmp eq i8 %6, 117
  br i1 %17, label %18, label %22

18:                                               ; preds = %16
  %19 = getelementptr inbounds nuw i8, ptr %0, i64 24
  %20 = load ptr, ptr %19, align 8, !tbaa !53
  %21 = tail call ptr @PyUnicode_FromWideChar(ptr noundef %20, i64 noundef %.val19) #11
  br label %array_array_tounicode_impl.exit

22:                                               ; preds = %16
  call void @llvm.lifetime.start.p0(i64 4, ptr nonnull %2) #11
  store i32 0, ptr %2, align 4, !tbaa !34
  %23 = getelementptr inbounds nuw i8, ptr %0, i64 24
  %24 = load ptr, ptr %23, align 8, !tbaa !53
  %25 = shl i64 %.val19, 2
  %26 = call ptr @PyUnicode_DecodeUTF32(ptr noundef %24, i64 noundef %25, ptr noundef null, ptr noundef nonnull %2) #11
  call void @llvm.lifetime.end.p0(i64 4, ptr nonnull %2) #11
  br label %array_array_tounicode_impl.exit

27:                                               ; preds = %13
  %28 = tail call ptr @PyList_New(i64 noundef %.val19) #11
  %29 = icmp eq ptr %28, null
  br i1 %29, label %Py_DECREF.exit, label %.preheader.i

.preheader.i:                                     ; preds = %27
  %.val21.i = load i64, ptr %3, align 8, !tbaa !40
  %30 = icmp sgt i64 %.val21.i, 0
  br i1 %30, label %.lr.ph.i, label %array_array_tounicode_impl.exit.thread24

.lr.ph.i:                                         ; preds = %.preheader.i
  %31 = getelementptr i8, ptr %28, i64 24
  br label %32

32:                                               ; preds = %38, %.lr.ph.i
  %.01522.i = phi i64 [ 0, %.lr.ph.i ], [ %40, %38 ]
  %33 = load ptr, ptr %4, align 8, !tbaa !76
  %34 = getelementptr inbounds nuw i8, ptr %33, i64 8
  %35 = load ptr, ptr %34, align 8, !tbaa !97
  %36 = tail call ptr %35(ptr noundef nonnull %0, i64 noundef %.01522.i) #11
  %37 = icmp eq ptr %36, null
  br i1 %37, label %42, label %38

38:                                               ; preds = %32
  %.val19.i = load ptr, ptr %31, align 8, !tbaa !43
  %39 = getelementptr ptr, ptr %.val19.i, i64 %.01522.i
  store ptr %36, ptr %39, align 8, !tbaa !18
  %40 = add nuw nsw i64 %.01522.i, 1
  %.val.i21 = load i64, ptr %3, align 8, !tbaa !40
  %41 = icmp slt i64 %40, %.val.i21
  br i1 %41, label %32, label %array_array_tounicode_impl.exit.thread24, !llvm.loop !98

42:                                               ; preds = %32
  %43 = load i32, ptr %28, align 8, !tbaa !17
  %.not.i.i = icmp sgt i32 %43, -1
  br i1 %.not.i.i, label %44, label %Py_DECREF.exit

44:                                               ; preds = %42
  %45 = add nsw i32 %43, -1
  store i32 %45, ptr %28, align 8, !tbaa !17
  %46 = icmp eq i32 %45, 0
  br i1 %46, label %47, label %Py_DECREF.exit

47:                                               ; preds = %44
  tail call void @_Py_Dealloc(ptr noundef nonnull %28) #11
  br label %Py_DECREF.exit

array_array_tounicode_impl.exit:                  ; preds = %22, %18
  %.017 = phi ptr [ %21, %18 ], [ %26, %22 ]
  %48 = icmp eq ptr %.017, null
  br i1 %48, label %Py_DECREF.exit, label %array_array_tounicode_impl.exit.thread24

array_array_tounicode_impl.exit.thread24:         ; preds = %38, %.preheader.i, %array_array_tounicode_impl.exit
  %.01726 = phi ptr [ %.017, %array_array_tounicode_impl.exit ], [ %28, %.preheader.i ], [ %28, %38 ]
  %49 = getelementptr i8, ptr %0, i64 8
  %.val = load ptr, ptr %49, align 8, !tbaa !19
  %50 = call ptr @_PyType_Name(ptr noundef %.val) #11
  %51 = call ptr (ptr, ...) @PyUnicode_FromFormat(ptr noundef nonnull @.str.74, ptr noundef %50, i32 noundef %14, ptr noundef nonnull %.01726) #11
  %52 = load i32, ptr %.01726, align 8, !tbaa !17
  %.not.i = icmp sgt i32 %52, -1
  br i1 %.not.i, label %53, label %Py_DECREF.exit

53:                                               ; preds = %array_array_tounicode_impl.exit.thread24
  %54 = add nsw i32 %52, -1
  store i32 %54, ptr %.01726, align 8, !tbaa !17
  %55 = icmp eq i32 %54, 0
  br i1 %55, label %56, label %Py_DECREF.exit

56:                                               ; preds = %53
  call void @_Py_Dealloc(ptr noundef nonnull %.01726) #11
  br label %Py_DECREF.exit

Py_DECREF.exit:                                   ; preds = %47, %44, %42, %27, %56, %53, %array_array_tounicode_impl.exit.thread24, %array_array_tounicode_impl.exit, %8
  %.0 = phi ptr [ %12, %8 ], [ null, %array_array_tounicode_impl.exit ], [ %51, %array_array_tounicode_impl.exit.thread24 ], [ %51, %53 ], [ %51, %56 ], [ null, %27 ], [ null, %42 ], [ null, %44 ], [ null, %47 ]
  ret ptr %.0
}